; Function Attrs: mustprogress nounwind uwtable
define dso_local noundef i32 @_ZN5vcpkg7compareERKNS_11DateVersionES2_(ptr noundef nonnull align 8 dereferenceable(88) %0, ptr noundef nonnull align 8 dereferenceable(88) %1) local_unnamed_addr #0 {
  %3 = getelementptr inbounds i8, ptr %0, i64 32
  %4 = tail call noundef ptr @_ZNKSt7__cxx1112basic_stringIcSt11char_traitsIcESaIcEE5c_strEv(ptr noundef nonnull align 8 dereferenceable(32) %3) #19
  %5 = getelementptr inbounds i8, ptr %1, i64 32
  %6 = tail call noundef ptr @_ZNKSt7__cxx1112basic_stringIcSt11char_traitsIcESaIcEE5c_strEv(ptr noundef nonnull align 8 dereferenceable(32) %5) #19
  %7 = tail call i32 @strcmp(ptr noundef nonnull dereferenceable(1) %4, ptr noundef nonnull dereferenceable(1) %6) #21
  %.not = icmp eq i32 %7, 0
  br i1 %.not, label %9, label %8

8:                                                ; preds = %2
  %.inv.i = icmp sgt i32 %7, -1
  %.0.i = select i1 %.inv.i, i32 1, i32 -1
  br label %_ZN5vcpkg4Util13range_lexcompISt6vectorImSaImEES4_PFimmEEEiRKT_RKT0_T1_.exit

9:                                                ; preds = %2
  %10 = getelementptr inbounds i8, ptr %0, i64 64
  %11 = getelementptr inbounds i8, ptr %1, i64 64
  %12 = load ptr, ptr %10, align 8
  %13 = getelementptr inbounds i8, ptr %0, i64 72
  %14 = load ptr, ptr %13, align 8
  %15 = load ptr, ptr %11, align 8
  %16 = getelementptr inbounds i8, ptr %1, i64 72
  %17 = load ptr, ptr %16, align 8
  %18 = icmp ne ptr %12, %14
  %19 = icmp ne ptr %15, %17
  %or.cond21.i = select i1 %18, i1 %19, i1 false
  br i1 %or.cond21.i, label %.lr.ph.i, label %.critedge.i

.lr.ph.i:                                         ; preds = %9, %26
  %.sroa.015.023.i = phi ptr [ %27, %26 ], [ %12, %9 ]
  %.sroa.09.022.i = phi ptr [ %28, %26 ], [ %15, %9 ]
  %20 = load i64, ptr %.sroa.015.023.i, align 8
  %21 = load i64, ptr %.sroa.09.022.i, align 8
  %22 = icmp ugt i64 %20, %21
  %23 = zext i1 %22 to i32
  %24 = icmp ult i64 %20, %21
  %.neg.i9 = sext i1 %24 to i32
  %25 = add nsw i32 %.neg.i9, %23
  %.not.i8 = icmp eq i32 %25, 0
  br i1 %.not.i8, label %26, label %_ZN5vcpkg4Util13range_lexcompISt6vectorImSaImEES4_PFimmEEEiRKT_RKT0_T1_.exit

26:                                               ; preds = %.lr.ph.i
  %27 = getelementptr inbounds i8, ptr %.sroa.015.023.i, i64 8
  %28 = getelementptr inbounds i8, ptr %.sroa.09.022.i, i64 8
  %29 = icmp ne ptr %27, %14
  %30 = icmp ne ptr %28, %17
  %or.cond.i = select i1 %29, i1 %30, i1 false
  br i1 %or.cond.i, label %.lr.ph.i, label %.critedge.i, !llvm.loop !37

.critedge.i:                                      ; preds = %26, %9
  %.sroa.09.0.lcssa.i = phi ptr [ %15, %9 ], [ %28, %26 ]
  %.sroa.015.0.lcssa.i = phi ptr [ %12, %9 ], [ %27, %26 ]
  %31 = icmp eq ptr %.sroa.09.0.lcssa.i, %17
  %32 = zext i1 %31 to i32
  %33 = icmp eq ptr %.sroa.015.0.lcssa.i, %14
  %.neg.i = sext i1 %33 to i32
  %34 = add nsw i32 %.neg.i, %32
  br label %_ZN5vcpkg4Util13range_lexcompISt6vectorImSaImEES4_PFimmEEEiRKT_RKT0_T1_.exit

_ZN5vcpkg4Util13range_lexcompISt6vectorImSaImEES4_PFimmEEEiRKT_RKT0_T1_.exit: ; preds = %.lr.ph.i, %.critedge.i, %8
  %.0 = phi i32 [ %.0.i, %8 ], [ %34, %.critedge.i ], [ %25, %.lr.ph.i ]
  ret i32 %.0
}